target datalayout = "e-m:e-p270:32:32-p271:32:32-p272:64:64-i64:64-i128:128-f80:128-n8:16:32:64-S128"
target triple = "x86_64-pc-linux-gnu"

@saveFileData = internal global ptr null, align 8
@.str.13 = private unnamed_addr constant [33 x i8] c"FILEIO: [%s] Failed to open file\00", align 1
@.str.14 = private unnamed_addr constant [40 x i8] c"FILEIO: File name provided is not valid\00", align 1
@.str.15 = private unnamed_addr constant [3 x i8] c"wb\00", align 1
@.str.16 = private unnamed_addr constant [34 x i8] c"FILEIO: [%s] Failed to write file\00", align 1
@.str.17 = private unnamed_addr constant [36 x i8] c"FILEIO: [%s] File partially written\00", align 1
@.str.18 = private unnamed_addr constant [37 x i8] c"FILEIO: [%s] File saved successfully\00", align 1

; Function Attrs: nounwind uwtable
define zeroext i1 @SaveFileData(ptr noundef %0, ptr noundef %1, i32 noundef %2) #0 {
  %4 = alloca i1, align 1
  %5 = alloca ptr, align 8
  %6 = alloca ptr, align 8
  %7 = alloca i32, align 4
  %8 = alloca i8, align 1
  %9 = alloca i32, align 4
  %10 = alloca ptr, align 8
  %11 = alloca i32, align 4
  %12 = alloca i32, align 4
  store ptr %0, ptr %5, align 8
  store ptr %1, ptr %6, align 8
  store i32 %2, ptr %7, align 4
  call void @llvm.lifetime.start.p0(i64 1, ptr %8) #13
  store i8 0, ptr %8, align 1
  %13 = load ptr, ptr %5, align 8
  %14 = icmp ne ptr %13, null
  br i1 %14, label %15, label %59

15:                                               ; preds = %3
  %16 = load ptr, ptr @saveFileData, align 8
  %17 = icmp ne ptr %16, null
  br i1 %17, label %18, label %24

18:                                               ; preds = %15
  %19 = load ptr, ptr @saveFileData, align 8
  %20 = load ptr, ptr %5, align 8
  %21 = load ptr, ptr %6, align 8
  %22 = load i32, ptr %7, align 4
  %23 = call zeroext i1 %19(ptr noundef %20, ptr noundef %21, i32 noundef %22)
  store i1 %23, ptr %4, align 1
  store i32 1, ptr %9, align 4
  br label %63

24:                                               ; preds = %15
  call void @llvm.lifetime.start.p0(i64 8, ptr %10) #13
  %25 = load ptr, ptr %5, align 8
  %26 = call noalias ptr @fopen(ptr noundef %25, ptr noundef @.str.15)
  store ptr %26, ptr %10, align 8
  %27 = load ptr, ptr %10, align 8
  %28 = icmp ne ptr %27, null
  br i1 %28, label %29, label %56

29:                                               ; preds = %24
  call void @llvm.lifetime.start.p0(i64 4, ptr %11) #13
  %30 = load ptr, ptr %6, align 8
  %31 = load i32, ptr %7, align 4
  %32 = sext i32 %31 to i64
  %33 = load ptr, ptr %10, align 8
  %34 = call i64 @fwrite(ptr noundef %30, i64 noundef 1, i64 noundef %32, ptr noundef %33)
  %35 = trunc i64 %34 to i32
  store i32 %35, ptr %11, align 4
  %36 = load i32, ptr %11, align 4
  %37 = icmp eq i32 %36, 0
  br i1 %37, label %38, label %40

38:                                               ; preds = %29
  %39 = load ptr, ptr %5, align 8
  call void (i32, ptr, ...) @TraceLog(i32 noundef 4, ptr noundef @.str.16, ptr noundef %39)
  br label %49

40:                                               ; preds = %29
  %41 = load i32, ptr %11, align 4
  %42 = load i32, ptr %7, align 4
  %43 = icmp ne i32 %41, %42
  br i1 %43, label %44, label %46

44:                                               ; preds = %40
  %45 = load ptr, ptr %5, align 8
  call void (i32, ptr, ...) @TraceLog(i32 noundef 4, ptr noundef @.str.17, ptr noundef %45)
  br label %48

46:                                               ; preds = %40
  %47 = load ptr, ptr %5, align 8
  call void (i32, ptr, ...) @TraceLog(i32 noundef 3, ptr noundef @.str.18, ptr noundef %47)
  br label %48

48:                                               ; preds = %46, %44
  br label %49

49:                                               ; preds = %48, %38
  call void @llvm.lifetime.start.p0(i64 4, ptr %12) #13
  %50 = load ptr, ptr %10, align 8
  %51 = call i32 @fclose(ptr noundef %50)
  store i32 %51, ptr %12, align 4
  %52 = load i32, ptr %12, align 4
  %53 = icmp eq i32 %52, 0
  br i1 %53, label %54, label %55

54:                                               ; preds = %49
  store i8 1, ptr %8, align 1
  br label %55

55:                                               ; preds = %54, %49
  call void @llvm.lifetime.end.p0(i64 4, ptr %12) #13
  call void @llvm.lifetime.end.p0(i64 4, ptr %11) #13
  br label %58

56:                                               ; preds = %24
  %57 = load ptr, ptr %5, align 8
  call void (i32, ptr, ...) @TraceLog(i32 noundef 4, ptr noundef @.str.13, ptr noundef %57)
  br label %58

58:                                               ; preds = %56, %55
  call void @llvm.lifetime.end.p0(i64 8, ptr %10) #13
  br label %60

59:                                               ; preds = %3
  call void (i32, ptr, ...) @TraceLog(i32 noundef 4, ptr noundef @.str.14)
  br label %60

60:                                               ; preds = %59, %58
  %61 = load i8, ptr %8, align 1, !range !3, !noundef !4
  %62 = trunc i8 %61 to i1
  store i1 %62, ptr %4, align 1
  store i32 1, ptr %9, align 4
  br label %63

63:                                               ; preds = %60, %18
  call void @llvm.lifetime.end.p0(i64 1, ptr %8) #13
  %64 = load i1, ptr %4, align 1
  ret i1 %64
}