; Function Attrs: nounwind uwtable
define zeroext i1 @SaveFileData(ptr noundef %0, ptr noundef %1, i32 noundef %2) local_unnamed_addr #1 {
  %.not = icmp eq ptr %0, null
  br i1 %.not, label %23, label %4

4:                                                ; preds = %3
  %5 = load ptr, ptr @saveFileData, align 8
  %.not24 = icmp eq ptr %5, null
  br i1 %.not24, label %8, label %6

6:                                                ; preds = %4
  %7 = tail call zeroext i1 %5(ptr noundef nonnull %0, ptr noundef %1, i32 noundef %2) #18
  br label %24

8:                                                ; preds = %4
  %9 = tail call noalias ptr @fopen(ptr noundef nonnull %0, ptr noundef nonnull @.str.15)
  %.not25 = icmp eq ptr %9, null
  br i1 %.not25, label %22, label %10

10:                                               ; preds = %8
  %11 = sext i32 %2 to i64
  %12 = tail call i64 @fwrite(ptr noundef %1, i64 noundef 1, i64 noundef %11, ptr noundef nonnull %9)
  %13 = trunc i64 %12 to i32
  %14 = icmp eq i32 %13, 0
  br i1 %14, label %15, label %16

15:                                               ; preds = %10
  tail call void (i32, ptr, ...) @TraceLog(i32 noundef 4, ptr noundef nonnull @.str.16, ptr noundef nonnull %0)
  br label %19

16:                                               ; preds = %10
  %.not26 = icmp eq i32 %2, %13
  br i1 %.not26, label %18, label %17

17:                                               ; preds = %16
  tail call void (i32, ptr, ...) @TraceLog(i32 noundef 4, ptr noundef nonnull @.str.17, ptr noundef nonnull %0)
  br label %19

18:                                               ; preds = %16
  tail call void (i32, ptr, ...) @TraceLog(i32 noundef 3, ptr noundef nonnull @.str.18, ptr noundef nonnull %0)
  br label %19

19:                                               ; preds = %17, %18, %15
  %20 = tail call i32 @fclose(ptr noundef nonnull %9)
  %21 = icmp eq i32 %20, 0
  br label %24

22:                                               ; preds = %8
  tail call void (i32, ptr, ...) @TraceLog(i32 noundef 4, ptr noundef nonnull @.str.13, ptr noundef nonnull %0)
  br label %24

23:                                               ; preds = %3
  tail call void (i32, ptr, ...) @TraceLog(i32 noundef 4, ptr noundef nonnull @.str.14)
  br label %24

24:                                               ; preds = %23, %22, %19, %6
  %.0 = phi i1 [ %7, %6 ], [ false, %23 ], [ %21, %19 ], [ false, %22 ]
  ret i1 %.0
}